target datalayout = "e-m:e-p270:32:32-p271:32:32-p272:64:64-i64:64-i128:128-f80:128-n8:16:32:64-S128"
target triple = "x86_64-unknown-linux-gnu"

%"class.std::__cxx11::basic_string" = type { %"struct.std::__cxx11::basic_string<char>::_Alloc_hider", i64, %union.anon }
%"struct.std::__cxx11::basic_string<char>::_Alloc_hider" = type { ptr }
%union.anon = type { i64, [8 x i8] }
%"struct.Assimp::BlenderImporter::StreamOrError" = type { %"class.std::shared_ptr", %"class.std::shared_ptr.8", %"class.std::__cxx11::basic_string" }
%"class.std::shared_ptr" = type { %"class.std::__shared_ptr" }
%"class.std::__shared_ptr" = type { ptr, %"class.std::__shared_count" }
%"class.std::__shared_count" = type { ptr }
%"class.std::shared_ptr.8" = type { %"class.std::__shared_ptr.9" }
%"class.std::__shared_ptr.9" = type { ptr, %"class.std::__shared_count" }

; Function Attrs: mustprogress uwtable
define hidden noundef zeroext i1 @_ZNK6Assimp15BlenderImporter7CanReadERKNSt7__cxx1112basic_stringIcSt11char_traitsIcESaIcEEEPNS_8IOSystemEb(ptr noundef nonnull align 8 dereferenceable(80) %this, ptr noundef nonnull align 8 dereferenceable(32) %pFile, ptr noundef %pIOHandler, i1 noundef zeroext %0) unnamed_addr #2 align 2 {
entry:
  %this.addr = alloca ptr, align 8
  %pFile.addr = alloca ptr, align 8
  %pIOHandler.addr = alloca ptr, align 8
  %.addr = alloca i8, align 1
  %ref.tmp = alloca %"struct.Assimp::BlenderImporter::StreamOrError", align 8
  store ptr %this, ptr %this.addr, align 8
  store ptr %pFile, ptr %pFile.addr, align 8
  store ptr %pIOHandler, ptr %pIOHandler.addr, align 8
  %frombool = zext i1 %0 to i8
  store i8 %frombool, ptr %.addr, align 1
  %this1 = load ptr, ptr %this.addr, align 8
  %1 = load ptr, ptr %pFile.addr, align 8
  %2 = load ptr, ptr %pIOHandler.addr, align 8
  call void @_ZNK6Assimp15BlenderImporter15ParseMagicTokenERKNSt7__cxx1112basic_stringIcSt11char_traitsIcESaIcEEEPNS_8IOSystemE(ptr sret(%"struct.Assimp::BlenderImporter::StreamOrError") align 8 %ref.tmp, ptr noundef nonnull align 8 dereferenceable(80) %this1, ptr noundef nonnull align 8 dereferenceable(32) %1, ptr noundef %2)
  %error = getelementptr inbounds %"struct.Assimp::BlenderImporter::StreamOrError", ptr %ref.tmp, i32 0, i32 2
  %call = call noundef zeroext i1 @_ZNKSt7__cxx1112basic_stringIcSt11char_traitsIcESaIcEE5emptyEv(ptr noundef nonnull align 8 dereferenceable(32) %error) #15
  call void @_ZN6Assimp15BlenderImporter13StreamOrErrorD2Ev(ptr noundef nonnull align 8 dereferenceable(64) %ref.tmp) #15
  ret i1 %call
}