; Function Attrs: mustprogress uwtable
define hidden noundef zeroext i1 @_ZNK6Assimp15BlenderImporter7CanReadERKNSt7__cxx1112basic_stringIcSt11char_traitsIcESaIcEEEPNS_8IOSystemEb(ptr nocapture noundef nonnull readnone align 8 dereferenceable(80) %this, ptr noundef nonnull align 8 dereferenceable(32) %pFile, ptr noundef %pIOHandler, i1 zeroext %0) unnamed_addr #1 align 2 {
entry:
  %ref.tmp = alloca %"struct.Assimp::BlenderImporter::StreamOrError", align 8
  call void @_ZNK6Assimp15BlenderImporter15ParseMagicTokenERKNSt7__cxx1112basic_stringIcSt11char_traitsIcESaIcEEEPNS_8IOSystemE(ptr nonnull sret(%"struct.Assimp::BlenderImporter::StreamOrError") align 8 %ref.tmp, ptr nonnull align 8 poison, ptr noundef nonnull align 8 dereferenceable(32) %pFile, ptr noundef %pIOHandler)
  %error = getelementptr inbounds i8, ptr %ref.tmp, i64 32
  %call = call noundef zeroext i1 @_ZNKSt7__cxx1112basic_stringIcSt11char_traitsIcESaIcEE5emptyEv(ptr noundef nonnull align 8 dereferenceable(32) %error) #20
  call void @_ZN6Assimp15BlenderImporter13StreamOrErrorD2Ev(ptr noundef nonnull align 8 dereferenceable(64) %ref.tmp) #20
  ret i1 %call
}